target datalayout = "e-m:e-p270:32:32-p271:32:32-p272:64:64-i64:64-i128:128-f80:128-n8:16:32:64-S128"
target triple = "x86_64-pc-linux-gnu"

@hf_isakmp_reserved = internal global i32 0, align 4
@hf_isakmp_sak_next_payload = internal global i32 0, align 4
@hf_isakmp_sak_reserved = internal global i32 0, align 4
@hf_isakmp_sak_payload_len = internal global i32 0, align 4
@hf_isakmp_sak_protocol = internal global i32 0, align 4
@hf_isakmp_sak_src_id_type = internal global i32 0, align 4
@hf_isakmp_sak_src_id_port = internal global i32 0, align 4
@hf_isakmp_sak_src_id_length = internal global i32 0, align 4
@hf_isakmp_sak_src_id_data = internal global i32 0, align 4
@hf_isakmp_sak_dst_id_type = internal global i32 0, align 4
@hf_isakmp_sak_dst_id_port = internal global i32 0, align 4
@hf_isakmp_sak_dst_id_length = internal global i32 0, align 4
@hf_isakmp_sak_dst_id_data = internal global i32 0, align 4
@hf_isakmp_sak_spi = internal global i32 0, align 4

; Function Attrs: null_pointer_is_valid sspstrong uwtable
define internal void @dissect_sa_kek(ptr noundef %0, ptr noundef %1, i32 noundef %2, i32 noundef %3, ptr noundef %4) #0 {
  %6 = alloca ptr, align 8
  %7 = alloca ptr, align 8
  %8 = alloca i32, align 4
  %9 = alloca i32, align 4
  %10 = alloca ptr, align 8
  %11 = alloca i32, align 4
  %12 = alloca i32, align 4
  %13 = alloca i32, align 4
  %14 = alloca i8, align 1
  %15 = alloca i16, align 2
  store ptr %0, ptr %6, align 8
  store ptr %1, ptr %7, align 8
  store i32 %2, ptr %8, align 4
  store i32 %3, ptr %9, align 4
  store ptr %4, ptr %10, align 8
  call void @llvm.lifetime.start.p0(i64 4, ptr %11) #16
  store i32 0, ptr %11, align 4
  call void @llvm.lifetime.start.p0(i64 4, ptr %12) #16
  call void @llvm.lifetime.start.p0(i64 4, ptr %13) #16
  call void @llvm.lifetime.start.p0(i64 1, ptr %14) #16
  call void @llvm.lifetime.start.p0(i64 2, ptr %15) #16
  %16 = load ptr, ptr %6, align 8
  %17 = load i32, ptr %8, align 4
  %18 = call zeroext i8 @tvb_get_uint8(ptr noundef %16, i32 noundef %17)
  store i8 %18, ptr %14, align 1
  %19 = load ptr, ptr %6, align 8
  %20 = load i32, ptr %8, align 4
  %21 = add i32 %20, 2
  %22 = call zeroext i16 @tvb_get_ntohs(ptr noundef %19, i32 noundef %21)
  store i16 %22, ptr %15, align 2
  %23 = load i32, ptr %8, align 4
  %24 = load i16, ptr %15, align 2
  %25 = zext i16 %24 to i32
  %26 = add i32 %23, %25
  store i32 %26, ptr %11, align 4
  %27 = load ptr, ptr %10, align 8
  %28 = load i32, ptr @hf_isakmp_sak_next_payload, align 4
  %29 = load ptr, ptr %6, align 8
  %30 = load i32, ptr %8, align 4
  %31 = call ptr @proto_tree_add_item(ptr noundef %27, i32 noundef %28, ptr noundef %29, i32 noundef %30, i32 noundef 1, i32 noundef 0)
  %32 = load ptr, ptr %10, align 8
  %33 = load i32, ptr @hf_isakmp_sak_reserved, align 4
  %34 = load ptr, ptr %6, align 8
  %35 = load i32, ptr %8, align 4
  %36 = add i32 %35, 1
  %37 = call ptr @proto_tree_add_item(ptr noundef %32, i32 noundef %33, ptr noundef %34, i32 noundef %36, i32 noundef 1, i32 noundef 0)
  %38 = load ptr, ptr %10, align 8
  %39 = load i32, ptr @hf_isakmp_sak_payload_len, align 4
  %40 = load ptr, ptr %6, align 8
  %41 = load i32, ptr %8, align 4
  %42 = add i32 %41, 2
  %43 = call ptr @proto_tree_add_item(ptr noundef %38, i32 noundef %39, ptr noundef %40, i32 noundef %42, i32 noundef 2, i32 noundef 0)
  %44 = load i32, ptr %8, align 4
  %45 = add i32 %44, 4
  store i32 %45, ptr %8, align 4
  %46 = load ptr, ptr %10, align 8
  %47 = load i32, ptr @hf_isakmp_sak_protocol, align 4
  %48 = load ptr, ptr %6, align 8
  %49 = load i32, ptr %8, align 4
  %50 = call ptr @proto_tree_add_item(ptr noundef %46, i32 noundef %47, ptr noundef %48, i32 noundef %49, i32 noundef 1, i32 noundef 0)
  %51 = load i32, ptr %8, align 4
  %52 = add i32 %51, 1
  store i32 %52, ptr %8, align 4
  %53 = load ptr, ptr %10, align 8
  %54 = load i32, ptr @hf_isakmp_sak_src_id_type, align 4
  %55 = load ptr, ptr %6, align 8
  %56 = load i32, ptr %8, align 4
  %57 = call ptr @proto_tree_add_item(ptr noundef %53, i32 noundef %54, ptr noundef %55, i32 noundef %56, i32 noundef 1, i32 noundef 0)
  %58 = load i32, ptr %8, align 4
  %59 = add i32 %58, 1
  store i32 %59, ptr %8, align 4
  %60 = load ptr, ptr %10, align 8
  %61 = load i32, ptr @hf_isakmp_sak_src_id_port, align 4
  %62 = load ptr, ptr %6, align 8
  %63 = load i32, ptr %8, align 4
  %64 = call ptr @proto_tree_add_item(ptr noundef %60, i32 noundef %61, ptr noundef %62, i32 noundef %63, i32 noundef 2, i32 noundef 0)
  %65 = load i32, ptr %8, align 4
  %66 = add i32 %65, 2
  store i32 %66, ptr %8, align 4
  %67 = load ptr, ptr %10, align 8
  %68 = load i32, ptr @hf_isakmp_sak_src_id_length, align 4
  %69 = load ptr, ptr %6, align 8
  %70 = load i32, ptr %8, align 4
  %71 = call ptr @proto_tree_add_item_ret_uint(ptr noundef %67, i32 noundef %68, ptr noundef %69, i32 noundef %70, i32 noundef 1, i32 noundef 0, ptr noundef %12)
  %72 = load i32, ptr %8, align 4
  %73 = add i32 %72, 1
  store i32 %73, ptr %8, align 4
  %74 = load i32, ptr %12, align 4
  %75 = icmp ugt i32 %74, 0
  br i1 %75, label %76, label %86

76:                                               ; preds = %5
  %77 = load ptr, ptr %10, align 8
  %78 = load i32, ptr @hf_isakmp_sak_src_id_data, align 4
  %79 = load ptr, ptr %6, align 8
  %80 = load i32, ptr %8, align 4
  %81 = load i32, ptr %12, align 4
  %82 = call ptr @proto_tree_add_item(ptr noundef %77, i32 noundef %78, ptr noundef %79, i32 noundef %80, i32 noundef %81, i32 noundef 0)
  %83 = load i32, ptr %12, align 4
  %84 = load i32, ptr %8, align 4
  %85 = add i32 %84, %83
  store i32 %85, ptr %8, align 4
  br label %86

86:                                               ; preds = %76, %5
  %87 = load ptr, ptr %10, align 8
  %88 = load i32, ptr @hf_isakmp_sak_dst_id_type, align 4
  %89 = load ptr, ptr %6, align 8
  %90 = load i32, ptr %8, align 4
  %91 = call ptr @proto_tree_add_item(ptr noundef %87, i32 noundef %88, ptr noundef %89, i32 noundef %90, i32 noundef 1, i32 noundef 0)
  %92 = load i32, ptr %8, align 4
  %93 = add i32 %92, 1
  store i32 %93, ptr %8, align 4
  %94 = load ptr, ptr %10, align 8
  %95 = load i32, ptr @hf_isakmp_sak_dst_id_port, align 4
  %96 = load ptr, ptr %6, align 8
  %97 = load i32, ptr %8, align 4
  %98 = call ptr @proto_tree_add_item(ptr noundef %94, i32 noundef %95, ptr noundef %96, i32 noundef %97, i32 noundef 2, i32 noundef 0)
  %99 = load i32, ptr %8, align 4
  %100 = add i32 %99, 2
  store i32 %100, ptr %8, align 4
  %101 = load ptr, ptr %10, align 8
  %102 = load i32, ptr @hf_isakmp_sak_dst_id_length, align 4
  %103 = load ptr, ptr %6, align 8
  %104 = load i32, ptr %8, align 4
  %105 = call ptr @proto_tree_add_item_ret_uint(ptr noundef %101, i32 noundef %102, ptr noundef %103, i32 noundef %104, i32 noundef 1, i32 noundef 0, ptr noundef %13)
  %106 = load i32, ptr %8, align 4
  %107 = add i32 %106, 1
  store i32 %107, ptr %8, align 4
  %108 = load i32, ptr %13, align 4
  %109 = icmp ugt i32 %108, 0
  br i1 %109, label %110, label %120

110:                                              ; preds = %86
  %111 = load ptr, ptr %10, align 8
  %112 = load i32, ptr @hf_isakmp_sak_dst_id_data, align 4
  %113 = load ptr, ptr %6, align 8
  %114 = load i32, ptr %8, align 4
  %115 = load i32, ptr %13, align 4
  %116 = call ptr @proto_tree_add_item(ptr noundef %111, i32 noundef %112, ptr noundef %113, i32 noundef %114, i32 noundef %115, i32 noundef 0)
  %117 = load i32, ptr %13, align 4
  %118 = load i32, ptr %8, align 4
  %119 = add i32 %118, %117
  store i32 %119, ptr %8, align 4
  br label %120

120:                                              ; preds = %110, %86
  %121 = load ptr, ptr %10, align 8
  %122 = load i32, ptr @hf_isakmp_sak_spi, align 4
  %123 = load ptr, ptr %6, align 8
  %124 = load i32, ptr %8, align 4
  %125 = call ptr @proto_tree_add_item(ptr noundef %121, i32 noundef %122, ptr noundef %123, i32 noundef %124, i32 noundef 16, i32 noundef 0)
  %126 = load i32, ptr %8, align 4
  %127 = add i32 %126, 16
  store i32 %127, ptr %8, align 4
  %128 = load ptr, ptr %10, align 8
  %129 = load i32, ptr @hf_isakmp_reserved, align 4
  %130 = load ptr, ptr %6, align 8
  %131 = load i32, ptr %8, align 4
  %132 = call ptr @proto_tree_add_item(ptr noundef %128, i32 noundef %129, ptr noundef %130, i32 noundef %131, i32 noundef 4, i32 noundef 0)
  %133 = load i32, ptr %8, align 4
  %134 = add i32 %133, 4
  store i32 %134, ptr %8, align 4
  br label %135

135:                                              ; preds = %139, %120
  %136 = load i32, ptr %8, align 4
  %137 = load i32, ptr %11, align 4
  %138 = icmp slt i32 %136, %137
  br i1 %138, label %139, label %147

139:                                              ; preds = %135
  %140 = load ptr, ptr %6, align 8
  %141 = load ptr, ptr %7, align 8
  %142 = load ptr, ptr %10, align 8
  %143 = load i32, ptr %8, align 4
  %144 = call i32 @dissect_ipsec_attribute(ptr noundef %140, ptr noundef %141, ptr noundef %142, i32 noundef %143)
  %145 = load i32, ptr %8, align 4
  %146 = add i32 %145, %144
  store i32 %146, ptr %8, align 4
  br label %135, !llvm.loop !25

147:                                              ; preds = %135
  %148 = load i8, ptr %14, align 1
  %149 = zext i8 %148 to i32
  %150 = icmp eq i32 16, %149
  br i1 %150, label %151, label %157

151:                                              ; preds = %147
  %152 = load ptr, ptr %6, align 8
  %153 = load ptr, ptr %7, align 8
  %154 = load i32, ptr %8, align 4
  %155 = load i32, ptr %9, align 4
  %156 = load ptr, ptr %10, align 8
  call void @dissect_sa_tek(ptr noundef %152, ptr noundef %153, i32 noundef %154, i32 noundef %155, ptr noundef %156)
  br label %157

157:                                              ; preds = %151, %147
  call void @llvm.lifetime.end.p0(i64 2, ptr %15) #16
  call void @llvm.lifetime.end.p0(i64 1, ptr %14) #16
  call void @llvm.lifetime.end.p0(i64 4, ptr %13) #16
  call void @llvm.lifetime.end.p0(i64 4, ptr %12) #16
  call void @llvm.lifetime.end.p0(i64 4, ptr %11) #16
  ret void
}