; Function Attrs: null_pointer_is_valid sspstrong uwtable
define internal fastcc void @dissect_sa_kek(ptr noundef %0, ptr noundef %1, i32 noundef %2, i32 noundef range(i32 -4, 65532) %3, ptr noundef %4) unnamed_addr #0 {
  %6 = alloca i32, align 4
  %7 = alloca i32, align 4
  call void @llvm.lifetime.start.p0(i64 4, ptr nonnull %6) #20
  call void @llvm.lifetime.start.p0(i64 4, ptr nonnull %7) #20
  %8 = tail call zeroext i8 @tvb_get_uint8(ptr noundef %0, i32 noundef %2)
  %9 = add i32 %2, 2
  %10 = tail call zeroext i16 @tvb_get_ntohs(ptr noundef %0, i32 noundef %9)
  %11 = zext i16 %10 to i32
  %12 = add i32 %2, %11
  %13 = load i32, ptr @hf_isakmp_sak_next_payload, align 4
  %14 = tail call ptr @proto_tree_add_item(ptr noundef %4, i32 noundef %13, ptr noundef %0, i32 noundef %2, i32 noundef 1, i32 noundef 0)
  %15 = load i32, ptr @hf_isakmp_sak_reserved, align 4
  %16 = add i32 %2, 1
  %17 = tail call ptr @proto_tree_add_item(ptr noundef %4, i32 noundef %15, ptr noundef %0, i32 noundef %16, i32 noundef 1, i32 noundef 0)
  %18 = load i32, ptr @hf_isakmp_sak_payload_len, align 4
  %19 = tail call ptr @proto_tree_add_item(ptr noundef %4, i32 noundef %18, ptr noundef %0, i32 noundef %9, i32 noundef 2, i32 noundef 0)
  %20 = add i32 %2, 4
  %21 = load i32, ptr @hf_isakmp_sak_protocol, align 4
  %22 = tail call ptr @proto_tree_add_item(ptr noundef %4, i32 noundef %21, ptr noundef %0, i32 noundef %20, i32 noundef 1, i32 noundef 0)
  %23 = add i32 %2, 5
  %24 = load i32, ptr @hf_isakmp_sak_src_id_type, align 4
  %25 = tail call ptr @proto_tree_add_item(ptr noundef %4, i32 noundef %24, ptr noundef %0, i32 noundef %23, i32 noundef 1, i32 noundef 0)
  %26 = add i32 %2, 6
  %27 = load i32, ptr @hf_isakmp_sak_src_id_port, align 4
  %28 = tail call ptr @proto_tree_add_item(ptr noundef %4, i32 noundef %27, ptr noundef %0, i32 noundef %26, i32 noundef 2, i32 noundef 0)
  %29 = add i32 %2, 8
  %30 = load i32, ptr @hf_isakmp_sak_src_id_length, align 4
  %31 = call ptr @proto_tree_add_item_ret_uint(ptr noundef %4, i32 noundef %30, ptr noundef %0, i32 noundef %29, i32 noundef 1, i32 noundef 0, ptr noundef nonnull %6)
  %32 = add i32 %2, 9
  %33 = load i32, ptr %6, align 4
  %.not = icmp eq i32 %33, 0
  br i1 %.not, label %39, label %34

34:                                               ; preds = %5
  %35 = load i32, ptr @hf_isakmp_sak_src_id_data, align 4
  %36 = call ptr @proto_tree_add_item(ptr noundef %4, i32 noundef %35, ptr noundef %0, i32 noundef %32, i32 noundef %33, i32 noundef 0)
  %37 = load i32, ptr %6, align 4
  %38 = add i32 %37, %32
  br label %39

39:                                               ; preds = %34, %5
  %.0 = phi i32 [ %38, %34 ], [ %32, %5 ]
  %40 = load i32, ptr @hf_isakmp_sak_dst_id_type, align 4
  %41 = call ptr @proto_tree_add_item(ptr noundef %4, i32 noundef %40, ptr noundef %0, i32 noundef %.0, i32 noundef 1, i32 noundef 0)
  %42 = add i32 %.0, 1
  %43 = load i32, ptr @hf_isakmp_sak_dst_id_port, align 4
  %44 = call ptr @proto_tree_add_item(ptr noundef %4, i32 noundef %43, ptr noundef %0, i32 noundef %42, i32 noundef 2, i32 noundef 0)
  %45 = add i32 %.0, 3
  %46 = load i32, ptr @hf_isakmp_sak_dst_id_length, align 4
  %47 = call ptr @proto_tree_add_item_ret_uint(ptr noundef %4, i32 noundef %46, ptr noundef %0, i32 noundef %45, i32 noundef 1, i32 noundef 0, ptr noundef nonnull %7)
  %48 = add i32 %.0, 4
  %49 = load i32, ptr %7, align 4
  %.not74 = icmp eq i32 %49, 0
  br i1 %.not74, label %55, label %50

50:                                               ; preds = %39
  %51 = load i32, ptr @hf_isakmp_sak_dst_id_data, align 4
  %52 = call ptr @proto_tree_add_item(ptr noundef %4, i32 noundef %51, ptr noundef %0, i32 noundef %48, i32 noundef %49, i32 noundef 0)
  %53 = load i32, ptr %7, align 4
  %54 = add i32 %53, %48
  br label %55

55:                                               ; preds = %50, %39
  %.1 = phi i32 [ %54, %50 ], [ %48, %39 ]
  %56 = load i32, ptr @hf_isakmp_sak_spi, align 4
  %57 = call ptr @proto_tree_add_item(ptr noundef %4, i32 noundef %56, ptr noundef %0, i32 noundef %.1, i32 noundef 16, i32 noundef 0)
  %58 = add i32 %.1, 16
  %59 = load i32, ptr @hf_isakmp_reserved, align 4
  %60 = call ptr @proto_tree_add_item(ptr noundef %4, i32 noundef %59, ptr noundef %0, i32 noundef %58, i32 noundef 4, i32 noundef 0)
  %61 = add i32 %.1, 20
  %62 = icmp slt i32 %61, %12
  br i1 %62, label %.lr.ph, label %._crit_edge

.lr.ph:                                           ; preds = %55, %.lr.ph
  %.275 = phi i32 [ %64, %.lr.ph ], [ %61, %55 ]
  %63 = call fastcc i32 @dissect_ipsec_attribute(ptr noundef %0, ptr noundef %1, ptr noundef %4, i32 noundef %.275)
  %64 = add i32 %63, %.275
  %65 = icmp slt i32 %64, %12
  br i1 %65, label %.lr.ph, label %._crit_edge, !llvm.loop !49

._crit_edge:                                      ; preds = %.lr.ph, %55
  %.2.lcssa = phi i32 [ %61, %55 ], [ %64, %.lr.ph ]
  %66 = icmp eq i8 %8, 16
  br i1 %66, label %67, label %68

67:                                               ; preds = %._crit_edge
  call fastcc void @dissect_sa_tek(ptr noundef %0, ptr noundef %1, i32 noundef %.2.lcssa, i32 noundef %3, ptr noundef %4)
  br label %68

68:                                               ; preds = %67, %._crit_edge
  call void @llvm.lifetime.end.p0(i64 4, ptr nonnull %7) #20
  call void @llvm.lifetime.end.p0(i64 4, ptr nonnull %6) #20
  ret void
}